target datalayout = "e-m:e-p270:32:32-p271:32:32-p272:64:64-i64:64-i128:128-f80:128-n8:16:32:64-S128"
target triple = "x86_64-pc-linux-gnu"

%struct.__va_list_tag = type { i32, i32, ptr, ptr }

@stderr = external global ptr, align 8
@flac__utils_verbosity_ = external global i32, align 4
@.str.187 = private unnamed_addr constant [66 x i8] c"Type \22flac\22 for a usage summary or \22flac --help\22 for all options\0A\00", align 1

; Function Attrs: alwaysinline
define internal i32 @vfprintf.inline(ptr noalias %0, ptr noalias %1, ptr %2) #6 {
  %4 = alloca ptr, align 8
  %5 = alloca ptr, align 8
  %6 = alloca ptr, align 8
  store ptr %0, ptr %4, align 8, !tbaa !15
  store ptr %1, ptr %5, align 8, !tbaa !92
  store ptr %2, ptr %6, align 8, !tbaa !164
  %7 = load ptr, ptr %4, align 8, !tbaa !15
  %8 = load ptr, ptr %5, align 8, !tbaa !92
  %9 = load ptr, ptr %6, align 8, !tbaa !164
  %10 = call i32 @__vfprintf_chk(ptr noundef %7, i32 noundef 1, ptr noundef %8, ptr noundef %9)
  ret i32 %10
}

; Function Attrs: nounwind sspstrong uwtable
define internal i32 @usage_error(ptr noundef %0, ...) #0 {
  %2 = alloca ptr, align 8
  %3 = alloca [1 x %struct.__va_list_tag], align 16
  store ptr %0, ptr %2, align 8, !tbaa !92
  %4 = load i32, ptr @flac__utils_verbosity_, align 4, !tbaa !4
  %5 = icmp sge i32 %4, 1
  br i1 %5, label %6, label %14

6:                                                ; preds = %1
  call void @llvm.lifetime.start.p0(i64 24, ptr %3) #17
  %7 = getelementptr inbounds [1 x %struct.__va_list_tag], ptr %3, i64 0, i64 0
  call void @llvm.va_start.p0(ptr %7)
  %8 = load ptr, ptr @stderr, align 8, !tbaa !15
  %9 = load ptr, ptr %2, align 8, !tbaa !92
  %10 = getelementptr inbounds [1 x %struct.__va_list_tag], ptr %3, i64 0, i64 0
  %11 = call i32 @vfprintf.inline(ptr noundef %8, ptr noundef %9, ptr noundef %10) #17
  %12 = getelementptr inbounds [1 x %struct.__va_list_tag], ptr %3, i64 0, i64 0
  call void @llvm.va_end.p0(ptr %12)
  %13 = call i32 (i32, ptr, ...) @__printf_chk(i32 noundef 1, ptr noundef @.str.187)
  call void @llvm.lifetime.end.p0(i64 24, ptr %3) #17
  br label %14

14:                                               ; preds = %6, %1
  ret i32 1
}