; Function Attrs: nounwind sspstrong uwtable
define internal void @usage_error(ptr noundef %0, ...) unnamed_addr #0 {
  %2 = alloca [1 x %struct.__va_list_tag], align 16
  %3 = load i32, ptr @flac__utils_verbosity_, align 4, !tbaa !41
  %4 = icmp sgt i32 %3, 0
  br i1 %4, label %5, label %9

5:                                                ; preds = %1
  call void @llvm.lifetime.start.p0(i64 24, ptr nonnull %2) #21
  call void @llvm.va_start.p0(ptr nonnull %2)
  %6 = load ptr, ptr @stderr, align 8, !tbaa !39
  %7 = call i32 @__vfprintf_chk(ptr noundef %6, i32 noundef 1, ptr noundef %0, ptr noundef nonnull %2) #21
  call void @llvm.va_end.p0(ptr nonnull %2)
  %8 = call i32 (i32, ptr, ...) @__printf_chk(i32 noundef 1, ptr noundef nonnull @.str.187) #21
  call void @llvm.lifetime.end.p0(i64 24, ptr nonnull %2) #21
  br label %9

9:                                                ; preds = %5, %1
  ret void
}